; Function Attrs: nounwind uwtable
define internal range(i32 0, 2) i32 @test_kdf_pbkdf2_invalid_digest() #0 {
  %1 = alloca i32, align 4
  %2 = alloca i32, align 4
  call void @llvm.lifetime.start.p0(i64 4, ptr nonnull %1) #6
  store i32 4096, ptr %1, align 4, !tbaa !4
  call void @llvm.lifetime.start.p0(i64 4, ptr nonnull %2) #6
  store i32 0, ptr %2, align 4, !tbaa !4
  %3 = call fastcc ptr @construct_pbkdf2_params(ptr noundef nonnull @.str.88, ptr noundef nonnull @.str.61, ptr noundef %1, ptr noundef %2)
  %4 = call i32 @test_ptr(ptr noundef nonnull @.str.53, i32 noundef 844, ptr noundef nonnull @.str.62, ptr noundef %3) #6
  %.not = icmp eq i32 %4, 0
  br i1 %.not, label %14, label %5

5:                                                ; preds = %0
  %6 = call ptr @EVP_KDF_fetch(ptr noundef null, ptr noundef nonnull @.str.107, ptr noundef null) #6
  %7 = call ptr @EVP_KDF_CTX_new(ptr noundef %6) #6
  call void @EVP_KDF_free(ptr noundef %6) #6
  %8 = call i32 @test_ptr(ptr noundef nonnull @.str.53, i32 noundef 845, ptr noundef nonnull @.str.137, ptr noundef %7) #6
  %.not6 = icmp eq i32 %8, 0
  br i1 %.not6, label %14, label %9

9:                                                ; preds = %5
  %10 = call i32 @EVP_KDF_CTX_set_params(ptr noundef %7, ptr noundef %3) #6
  %11 = icmp ne i32 %10, 0
  %12 = zext i1 %11 to i32
  %13 = call i32 @test_false(ptr noundef nonnull @.str.53, i32 noundef 847, ptr noundef nonnull @.str.65, i32 noundef %12) #6
  %.not7 = icmp ne i32 %13, 0
  %spec.select = zext i1 %.not7 to i32
  br label %14

14:                                               ; preds = %9, %0, %5
  %.05 = phi ptr [ %7, %5 ], [ null, %0 ], [ %7, %9 ]
  %.0 = phi i32 [ 0, %5 ], [ 0, %0 ], [ %spec.select, %9 ]
  call void @EVP_KDF_CTX_free(ptr noundef %.05) #6
  call void @CRYPTO_free(ptr noundef %3, ptr noundef nonnull @.str.53, i32 noundef 853) #6
  call void @llvm.lifetime.end.p0(i64 4, ptr nonnull %2) #6
  call void @llvm.lifetime.end.p0(i64 4, ptr nonnull %1) #6
  ret i32 %.0
}